target datalayout = "e-m:e-p270:32:32-p271:32:32-p272:64:64-i64:64-i128:128-f80:128-n8:16:32:64-S128"
target triple = "x86_64-pc-linux-gnu"

%"class.Assimp::IFC::Curve" = type { ptr, ptr, ptr }
%"struct.Assimp::IFC::ConversionData" = type { double, double, i8, ptr, ptr, ptr, %class.aiMatrix4x4t, %"class.std::vector.13", %"class.std::vector.18", %"class.std::map", %"class.std::map.26", ptr, ptr, ptr, %"class.std::set" }
%class.aiMatrix4x4t = type { double, double, double, double, double, double, double, double, double, double, double, double, double, double, double, double }
%"class.std::vector.13" = type { %"struct.std::_Vector_base.14" }
%"struct.std::_Vector_base.14" = type { %"struct.std::_Vector_base<aiMesh *, std::allocator<aiMesh *>>::_Vector_impl" }
%"struct.std::_Vector_base<aiMesh *, std::allocator<aiMesh *>>::_Vector_impl" = type { %"struct.std::_Vector_base<aiMesh *, std::allocator<aiMesh *>>::_Vector_impl_data" }
%"struct.std::_Vector_base<aiMesh *, std::allocator<aiMesh *>>::_Vector_impl_data" = type { ptr, ptr, ptr }
%"class.std::vector.18" = type { %"struct.std::_Vector_base.19" }
%"struct.std::_Vector_base.19" = type { %"struct.std::_Vector_base<aiMaterial *, std::allocator<aiMaterial *>>::_Vector_impl" }
%"struct.std::_Vector_base<aiMaterial *, std::allocator<aiMaterial *>>::_Vector_impl" = type { %"struct.std::_Vector_base<aiMaterial *, std::allocator<aiMaterial *>>::_Vector_impl_data" }
%"struct.std::_Vector_base<aiMaterial *, std::allocator<aiMaterial *>>::_Vector_impl_data" = type { ptr, ptr, ptr }
%"class.std::map" = type { %"class.std::_Rb_tree" }
%"class.std::_Rb_tree" = type { %"struct.std::_Rb_tree<Assimp::IFC::ConversionData::MeshCacheIndex, std::pair<const Assimp::IFC::ConversionData::MeshCacheIndex, std::set<unsigned int>>, std::_Select1st<std::pair<const Assimp::IFC::ConversionData::MeshCacheIndex, std::set<unsigned int>>>, std::less<Assimp::IFC::ConversionData::MeshCacheIndex>>::_Rb_tree_impl" }
%"struct.std::_Rb_tree<Assimp::IFC::ConversionData::MeshCacheIndex, std::pair<const Assimp::IFC::ConversionData::MeshCacheIndex, std::set<unsigned int>>, std::_Select1st<std::pair<const Assimp::IFC::ConversionData::MeshCacheIndex, std::set<unsigned int>>>, std::less<Assimp::IFC::ConversionData::MeshCacheIndex>>::_Rb_tree_impl" = type { [8 x i8], %"struct.std::_Rb_tree_header" }
%"struct.std::_Rb_tree_header" = type { %"struct.std::_Rb_tree_node_base", i64 }
%"struct.std::_Rb_tree_node_base" = type { i32, ptr, ptr, ptr }
%"class.std::map.26" = type { %"class.std::_Rb_tree.27" }
%"class.std::_Rb_tree.27" = type { %"struct.std::_Rb_tree<const Assimp::IFC::Schema_2x3::IfcSurfaceStyle *, std::pair<const Assimp::IFC::Schema_2x3::IfcSurfaceStyle *const, unsigned int>, std::_Select1st<std::pair<const Assimp::IFC::Schema_2x3::IfcSurfaceStyle *const, unsigned int>>, std::less<const Assimp::IFC::Schema_2x3::IfcSurfaceStyle *>>::_Rb_tree_impl" }
%"struct.std::_Rb_tree<const Assimp::IFC::Schema_2x3::IfcSurfaceStyle *, std::pair<const Assimp::IFC::Schema_2x3::IfcSurfaceStyle *const, unsigned int>, std::_Select1st<std::pair<const Assimp::IFC::Schema_2x3::IfcSurfaceStyle *const, unsigned int>>, std::less<const Assimp::IFC::Schema_2x3::IfcSurfaceStyle *>>::_Rb_tree_impl" = type { [8 x i8], %"struct.std::_Rb_tree_header" }
%"class.std::set" = type { %"class.std::_Rb_tree.32" }
%"class.std::_Rb_tree.32" = type { %"struct.std::_Rb_tree<unsigned long, unsigned long, std::_Identity<unsigned long>, std::less<unsigned long>>::_Rb_tree_impl" }
%"struct.std::_Rb_tree<unsigned long, unsigned long, std::_Identity<unsigned long>, std::less<unsigned long>>::_Rb_tree_impl" = type { [8 x i8], %"struct.std::_Rb_tree_header" }
%"struct.Assimp::IFCImporter::Settings" = type { i8, i8, i8, float, i32 }

; Function Attrs: inlinehint mustprogress nounwind uwtable
define linkonce_odr noundef double @_ZSt3absd(double noundef %0) #6 comdat {
  %2 = alloca double, align 8
  store double %0, ptr %2, align 8
  %3 = load double, ptr %2, align 8
  %4 = call double @llvm.fabs.f64(double %3)
  ret double %4
}

; Function Attrs: mustprogress uwtable
define internal noundef i64 @_ZNK6Assimp3IFC12_GLOBAL__N_15Conic19EstimateSampleCountEdd(ptr noundef nonnull align 8 dereferenceable(120) %0, double noundef %1, double noundef %2) unnamed_addr #1 align 2 {
  %4 = alloca ptr, align 8
  %5 = alloca double, align 8
  %6 = alloca double, align 8
  %7 = alloca double, align 8
  store ptr %0, ptr %4, align 8
  store double %1, ptr %5, align 8
  store double %2, ptr %6, align 8
  %8 = load ptr, ptr %4, align 8
  %9 = getelementptr inbounds nuw %"class.Assimp::IFC::Curve", ptr %8, i32 0, i32 2
  %10 = load ptr, ptr %9, align 8
  %11 = getelementptr inbounds nuw %"struct.Assimp::IFC::ConversionData", ptr %10, i32 0, i32 1
  %12 = load double, ptr %11, align 8
  %13 = load double, ptr %5, align 8
  %14 = fmul double %13, %12
  store double %14, ptr %5, align 8
  %15 = getelementptr inbounds nuw %"class.Assimp::IFC::Curve", ptr %8, i32 0, i32 2
  %16 = load ptr, ptr %15, align 8
  %17 = getelementptr inbounds nuw %"struct.Assimp::IFC::ConversionData", ptr %16, i32 0, i32 1
  %18 = load double, ptr %17, align 8
  %19 = load double, ptr %6, align 8
  %20 = fmul double %19, %18
  store double %20, ptr %6, align 8
  %21 = load double, ptr %5, align 8
  %22 = call double @fmod(double noundef %21, double noundef 0x401921FB54442D18) #19
  store double %22, ptr %5, align 8
  %23 = load double, ptr %6, align 8
  %24 = call double @fmod(double noundef %23, double noundef 0x401921FB54442D18) #19
  store double %24, ptr %6, align 8
  call void @llvm.lifetime.start.p0(i64 8, ptr %7) #19
  %25 = getelementptr inbounds nuw %"class.Assimp::IFC::Curve", ptr %8, i32 0, i32 2
  %26 = load ptr, ptr %25, align 8
  %27 = getelementptr inbounds nuw %"struct.Assimp::IFC::ConversionData", ptr %26, i32 0, i32 11
  %28 = load ptr, ptr %27, align 8
  %29 = getelementptr inbounds nuw %"struct.Assimp::IFCImporter::Settings", ptr %28, i32 0, i32 3
  %30 = load float, ptr %29, align 4
  %31 = fpext float %30 to double
  %32 = fmul double 0x400921FB54442D18, %31
  %33 = fdiv double %32, 1.800000e+02
  store double %33, ptr %7, align 8
  %34 = load double, ptr %6, align 8
  %35 = load double, ptr %5, align 8
  %36 = fsub double %34, %35
  %37 = call noundef double @_ZSt3absd(double noundef %36)
  %38 = call double @llvm.ceil.f64(double %37)
  %39 = load double, ptr %7, align 8
  %40 = fdiv double %38, %39
  %41 = fptoui double %40 to i64
  call void @llvm.lifetime.end.p0(i64 8, ptr %7) #19
  ret i64 %41
}