; Function Attrs: mustprogress nofree nounwind willreturn memory(readwrite, inaccessiblemem: write) uwtable
define internal noundef i64 @_ZNK6Assimp3IFC12_GLOBAL__N_15Conic19EstimateSampleCountEdd(ptr noundef nonnull readonly align 8 captures(none) dereferenceable(120) %0, double noundef %1, double noundef %2) unnamed_addr #23 align 2 {
  %4 = getelementptr inbounds nuw i8, ptr %0, i64 16
  %5 = load ptr, ptr %4, align 8
  %6 = getelementptr inbounds nuw i8, ptr %5, i64 8
  %7 = load double, ptr %6, align 8
  %8 = fmul double %1, %7
  %9 = fmul double %2, %7
  %10 = tail call double @fmod(double noundef %8, double noundef 0x401921FB54442D18) #31
  %11 = tail call double @fmod(double noundef %9, double noundef 0x401921FB54442D18) #31
  %12 = load ptr, ptr %4, align 8
  %13 = getelementptr inbounds nuw i8, ptr %12, i64 320
  %14 = load ptr, ptr %13, align 8
  %15 = getelementptr inbounds nuw i8, ptr %14, i64 4
  %16 = load float, ptr %15, align 4
  %17 = fpext float %16 to double
  %18 = fmul double %17, 0x400921FB54442D18
  %19 = fdiv double %18, 1.800000e+02
  %20 = fsub double %11, %10
  %21 = tail call noundef double @llvm.fabs.f64(double %20)
  %22 = tail call double @llvm.ceil.f64(double %21)
  %23 = fdiv double %22, %19
  %24 = fptoui double %23 to i64
  ret i64 %24
}